target datalayout = "e-m:e-p270:32:32-p271:32:32-p272:64:64-i64:64-i128:128-f80:128-n8:16:32:64-S128"
target triple = "x86_64-pc-linux-gnu"

%struct.rocksdb_restore_options_t = type { %"struct.rocksdb::RestoreOptions" }
%"struct.rocksdb::RestoreOptions" = type <{ i8, [7 x i8], %"class.std::forward_list", i32, [4 x i8] }>
%"class.std::forward_list" = type { %"struct.std::_Fwd_list_base" }
%"struct.std::_Fwd_list_base" = type { %"struct.std::_Fwd_list_base<rocksdb::BackupEngineReadOnlyBase *, std::allocator<rocksdb::BackupEngineReadOnlyBase *>>::_Fwd_list_impl" }
%"struct.std::_Fwd_list_base<rocksdb::BackupEngineReadOnlyBase *, std::allocator<rocksdb::BackupEngineReadOnlyBase *>>::_Fwd_list_impl" = type { %"struct.std::_Fwd_list_node_base" }
%"struct.std::_Fwd_list_node_base" = type { ptr }
%"struct.std::_Fwd_list_node" = type { %"struct.std::_Fwd_list_node_base", %"struct.__gnu_cxx::__aligned_buffer" }
%"struct.__gnu_cxx::__aligned_buffer" = type { %"union.std::aligned_storage<8, 8>::type" }
%"union.std::aligned_storage<8, 8>::type" = type { [8 x i8] }

; Function Attrs: mustprogress nounwind uwtable
define linkonce_odr void @_ZNSt15__new_allocatorISt14_Fwd_list_nodeIPN7rocksdb24BackupEngineReadOnlyBaseEEE10deallocateEPS4_m(ptr noundef nonnull align 1 dereferenceable(1) %0, ptr noundef %1, i64 noundef %2) #2 comdat align 2 {
  %4 = alloca ptr, align 8
  %5 = alloca ptr, align 8
  %6 = alloca i64, align 8
  store ptr %0, ptr %4, align 8, !tbaa !1422
  store ptr %1, ptr %5, align 8, !tbaa !1424
  store i64 %2, ptr %6, align 8, !tbaa !103
  %7 = load ptr, ptr %5, align 8, !tbaa !1424
  %8 = load i64, ptr %6, align 8, !tbaa !103
  %9 = mul i64 %8, 16
  call void @_ZdlPvm(ptr noundef %7, i64 noundef %9) #28
  ret void
}

; Function Attrs: mustprogress nounwind uwtable
define linkonce_odr noundef ptr @_ZN9__gnu_cxx16__aligned_bufferIPN7rocksdb24BackupEngineReadOnlyBaseEE7_M_addrEv(ptr noundef nonnull align 8 dereferenceable(8) %0) #2 comdat align 2 {
  %2 = alloca ptr, align 8
  store ptr %0, ptr %2, align 8, !tbaa !1429
  %3 = load ptr, ptr %2, align 8
  %4 = getelementptr inbounds nuw %"struct.__gnu_cxx::__aligned_buffer", ptr %3, i32 0, i32 0
  ret ptr %4
}

; Function Attrs: mustprogress uwtable
define linkonce_odr void @_ZNSt16allocator_traitsISaISt14_Fwd_list_nodeIPN7rocksdb24BackupEngineReadOnlyBaseEEEE10deallocateERS5_PS4_m(ptr noundef nonnull align 1 dereferenceable(1) %0, ptr noundef %1, i64 noundef %2) #0 comdat align 2 {
  %4 = alloca ptr, align 8
  %5 = alloca ptr, align 8
  %6 = alloca i64, align 8
  store ptr %0, ptr %4, align 8, !tbaa !1418
  store ptr %1, ptr %5, align 8, !tbaa !1424
  store i64 %2, ptr %6, align 8, !tbaa !103
  %7 = load ptr, ptr %4, align 8, !tbaa !1418
  %8 = load ptr, ptr %5, align 8, !tbaa !1424
  %9 = load i64, ptr %6, align 8, !tbaa !103
  call void @_ZNSt15__new_allocatorISt14_Fwd_list_nodeIPN7rocksdb24BackupEngineReadOnlyBaseEEE10deallocateEPS4_m(ptr noundef nonnull align 1 dereferenceable(1) %7, ptr noundef %8, i64 noundef %9)
  ret void
}

; Function Attrs: mustprogress nounwind uwtable
define linkonce_odr noundef ptr @_ZNSt19__ptr_traits_ptr_toIPSt14_Fwd_list_nodeIPN7rocksdb24BackupEngineReadOnlyBaseEES4_Lb0EE10pointer_toERS4_(ptr noundef nonnull align 8 dereferenceable(16) %0) #2 comdat align 2 {
  %2 = alloca ptr, align 8
  store ptr %0, ptr %2, align 8, !tbaa !1424
  %3 = load ptr, ptr %2, align 8, !tbaa !1424
  ret ptr %3
}

; Function Attrs: mustprogress nounwind uwtable
define linkonce_odr void @_ZNSt15__new_allocatorISt14_Fwd_list_nodeIPN7rocksdb24BackupEngineReadOnlyBaseEEE7destroyIS3_EEvPT_(ptr noundef nonnull align 1 dereferenceable(1) %0, ptr noundef %1) #2 comdat align 2 {
  %3 = alloca ptr, align 8
  %4 = alloca ptr, align 8
  store ptr %0, ptr %3, align 8, !tbaa !1422
  store ptr %1, ptr %4, align 8, !tbaa !1427
  ret void
}

; Function Attrs: mustprogress nounwind uwtable
define linkonce_odr noundef ptr @_ZN9__gnu_cxx16__aligned_bufferIPN7rocksdb24BackupEngineReadOnlyBaseEE6_M_ptrEv(ptr noundef nonnull align 8 dereferenceable(8) %0) #2 comdat align 2 {
  %2 = alloca ptr, align 8
  store ptr %0, ptr %2, align 8, !tbaa !1429
  %3 = load ptr, ptr %2, align 8
  %4 = call noundef ptr @_ZN9__gnu_cxx16__aligned_bufferIPN7rocksdb24BackupEngineReadOnlyBaseEE7_M_addrEv(ptr noundef nonnull align 8 dereferenceable(8) %3) #24
  ret ptr %4
}

; Function Attrs: mustprogress uwtable
define linkonce_odr void @_ZNSt14_Fwd_list_baseIPN7rocksdb24BackupEngineReadOnlyBaseESaIS2_EE11_M_put_nodeEPSt14_Fwd_list_nodeIS2_E(ptr noundef nonnull align 8 dereferenceable(8) %0, ptr noundef %1) #0 comdat align 2 {
  %3 = alloca ptr, align 8
  %4 = alloca ptr, align 8
  %5 = alloca ptr, align 8
  store ptr %0, ptr %3, align 8, !tbaa !1414
  store ptr %1, ptr %4, align 8, !tbaa !1424
  %6 = load ptr, ptr %3, align 8
  call void @llvm.lifetime.start.p0(i64 8, ptr %5) #24
  %7 = load ptr, ptr %4, align 8, !tbaa !1424
  %8 = call noundef ptr @_ZNSt19__ptr_traits_ptr_toIPSt14_Fwd_list_nodeIPN7rocksdb24BackupEngineReadOnlyBaseEES4_Lb0EE10pointer_toERS4_(ptr noundef nonnull align 8 dereferenceable(16) %7) #24
  store ptr %8, ptr %5, align 8, !tbaa !1424
  %9 = call noundef nonnull align 1 dereferenceable(1) ptr @_ZNSt14_Fwd_list_baseIPN7rocksdb24BackupEngineReadOnlyBaseESaIS2_EE21_M_get_Node_allocatorEv(ptr noundef nonnull align 8 dereferenceable(8) %6) #24
  %10 = load ptr, ptr %5, align 8, !tbaa !1424
  call void @_ZNSt16allocator_traitsISaISt14_Fwd_list_nodeIPN7rocksdb24BackupEngineReadOnlyBaseEEEE10deallocateERS5_PS4_m(ptr noundef nonnull align 1 dereferenceable(1) %9, ptr noundef %10, i64 noundef 1)
  call void @llvm.lifetime.end.p0(i64 8, ptr %5) #24
  ret void
}

; Function Attrs: mustprogress nounwind uwtable
define linkonce_odr void @_ZNSt16allocator_traitsISaISt14_Fwd_list_nodeIPN7rocksdb24BackupEngineReadOnlyBaseEEEE7destroyIS3_EEvRS5_PT_(ptr noundef nonnull align 1 dereferenceable(1) %0, ptr noundef %1) #2 comdat align 2 {
  %3 = alloca ptr, align 8
  %4 = alloca ptr, align 8
  store ptr %0, ptr %3, align 8, !tbaa !1418
  store ptr %1, ptr %4, align 8, !tbaa !1427
  %5 = load ptr, ptr %3, align 8, !tbaa !1418
  %6 = load ptr, ptr %4, align 8, !tbaa !1427
  call void @_ZNSt15__new_allocatorISt14_Fwd_list_nodeIPN7rocksdb24BackupEngineReadOnlyBaseEEE7destroyIS3_EEvPT_(ptr noundef nonnull align 1 dereferenceable(1) %5, ptr noundef %6) #24
  ret void
}

; Function Attrs: mustprogress nounwind uwtable
define linkonce_odr noundef ptr @_ZNSt14_Fwd_list_nodeIPN7rocksdb24BackupEngineReadOnlyBaseEE9_M_valptrEv(ptr noundef nonnull align 8 dereferenceable(16) %0) #2 comdat align 2 {
  %2 = alloca ptr, align 8
  store ptr %0, ptr %2, align 8, !tbaa !1424
  %3 = load ptr, ptr %2, align 8
  %4 = getelementptr inbounds nuw %"struct.std::_Fwd_list_node", ptr %3, i32 0, i32 1
  %5 = call noundef ptr @_ZN9__gnu_cxx16__aligned_bufferIPN7rocksdb24BackupEngineReadOnlyBaseEE6_M_ptrEv(ptr noundef nonnull align 8 dereferenceable(8) %4) #24
  ret ptr %5
}

; Function Attrs: mustprogress nounwind uwtable
define linkonce_odr noundef nonnull align 1 dereferenceable(1) ptr @_ZNSt14_Fwd_list_baseIPN7rocksdb24BackupEngineReadOnlyBaseESaIS2_EE21_M_get_Node_allocatorEv(ptr noundef nonnull align 8 dereferenceable(8) %0) #2 comdat align 2 {
  %2 = alloca ptr, align 8
  store ptr %0, ptr %2, align 8, !tbaa !1414
  %3 = load ptr, ptr %2, align 8
  %4 = getelementptr inbounds nuw %"struct.std::_Fwd_list_base", ptr %3, i32 0, i32 0
  ret ptr %4
}

; Function Attrs: noinline noreturn nounwind uwtable
define linkonce_odr hidden void @__clang_call_terminate(ptr noundef %0) #13 comdat {
  %2 = call ptr @__cxa_begin_catch(ptr %0) #24
  call void @_ZSt9terminatev() #27
  unreachable
}

; Function Attrs: mustprogress nounwind uwtable
define linkonce_odr void @_ZNSt15__new_allocatorISt14_Fwd_list_nodeIPN7rocksdb24BackupEngineReadOnlyBaseEEED2Ev(ptr noundef nonnull align 1 dereferenceable(1) %0) unnamed_addr #2 comdat align 2 {
  %2 = alloca ptr, align 8
  store ptr %0, ptr %2, align 8, !tbaa !1422
  ret void
}

; Function Attrs: mustprogress uwtable
define linkonce_odr noundef ptr @_ZNSt14_Fwd_list_baseIPN7rocksdb24BackupEngineReadOnlyBaseESaIS2_EE14_M_erase_afterEPSt19_Fwd_list_node_baseS6_(ptr noundef nonnull align 8 dereferenceable(8) %0, ptr noundef %1, ptr noundef %2) #0 comdat align 2 {
  %4 = alloca ptr, align 8
  %5 = alloca ptr, align 8
  %6 = alloca ptr, align 8
  %7 = alloca ptr, align 8
  %8 = alloca ptr, align 8
  store ptr %0, ptr %4, align 8, !tbaa !1414
  store ptr %1, ptr %5, align 8, !tbaa !1420
  store ptr %2, ptr %6, align 8, !tbaa !1420
  %9 = load ptr, ptr %4, align 8
  call void @llvm.lifetime.start.p0(i64 8, ptr %7) #24
  %10 = load ptr, ptr %5, align 8, !tbaa !1420
  %11 = getelementptr inbounds nuw %"struct.std::_Fwd_list_node_base", ptr %10, i32 0, i32 0
  %12 = load ptr, ptr %11, align 8, !tbaa !1421
  store ptr %12, ptr %7, align 8, !tbaa !1424
  br label %13

13:                                               ; preds = %17, %3
  %14 = load ptr, ptr %7, align 8, !tbaa !1424
  %15 = load ptr, ptr %6, align 8, !tbaa !1420
  %16 = icmp ne ptr %14, %15
  br i1 %16, label %17, label %26

17:                                               ; preds = %13
  call void @llvm.lifetime.start.p0(i64 8, ptr %8) #24
  %18 = load ptr, ptr %7, align 8, !tbaa !1424
  store ptr %18, ptr %8, align 8, !tbaa !1424
  %19 = load ptr, ptr %7, align 8, !tbaa !1424
  %20 = getelementptr inbounds nuw %"struct.std::_Fwd_list_node_base", ptr %19, i32 0, i32 0
  %21 = load ptr, ptr %20, align 8, !tbaa !1421
  store ptr %21, ptr %7, align 8, !tbaa !1424
  %22 = call noundef nonnull align 1 dereferenceable(1) ptr @_ZNSt14_Fwd_list_baseIPN7rocksdb24BackupEngineReadOnlyBaseESaIS2_EE21_M_get_Node_allocatorEv(ptr noundef nonnull align 8 dereferenceable(8) %9) #24
  %23 = load ptr, ptr %8, align 8, !tbaa !1424
  %24 = call noundef ptr @_ZNSt14_Fwd_list_nodeIPN7rocksdb24BackupEngineReadOnlyBaseEE9_M_valptrEv(ptr noundef nonnull align 8 dereferenceable(16) %23) #24
  call void @_ZNSt16allocator_traitsISaISt14_Fwd_list_nodeIPN7rocksdb24BackupEngineReadOnlyBaseEEEE7destroyIS3_EEvRS5_PT_(ptr noundef nonnull align 1 dereferenceable(1) %22, ptr noundef %24) #24
  %25 = load ptr, ptr %8, align 8, !tbaa !1424
  call void @_ZNSt14_Fwd_list_baseIPN7rocksdb24BackupEngineReadOnlyBaseESaIS2_EE11_M_put_nodeEPSt14_Fwd_list_nodeIS2_E(ptr noundef nonnull align 8 dereferenceable(8) %9, ptr noundef %25)
  call void @llvm.lifetime.end.p0(i64 8, ptr %8) #24
  br label %13, !llvm.loop !1426

26:                                               ; preds = %13
  %27 = load ptr, ptr %6, align 8, !tbaa !1420
  %28 = load ptr, ptr %5, align 8, !tbaa !1420
  %29 = getelementptr inbounds nuw %"struct.std::_Fwd_list_node_base", ptr %28, i32 0, i32 0
  store ptr %27, ptr %29, align 8, !tbaa !1421
  %30 = load ptr, ptr %6, align 8, !tbaa !1420
  call void @llvm.lifetime.end.p0(i64 8, ptr %7) #24
  ret ptr %30
}

; Function Attrs: mustprogress nounwind uwtable
define linkonce_odr void @_ZNSt14_Fwd_list_baseIPN7rocksdb24BackupEngineReadOnlyBaseESaIS2_EED2Ev(ptr noundef nonnull align 8 dereferenceable(8) %0) unnamed_addr #2 comdat align 2 personality ptr @__gxx_personality_v0 {
  %2 = alloca ptr, align 8
  store ptr %0, ptr %2, align 8, !tbaa !1414
  %3 = load ptr, ptr %2, align 8
  %4 = getelementptr inbounds nuw %"struct.std::_Fwd_list_base", ptr %3, i32 0, i32 0
  %5 = getelementptr inbounds nuw %"struct.std::_Fwd_list_base<rocksdb::BackupEngineReadOnlyBase *, std::allocator<rocksdb::BackupEngineReadOnlyBase *>>::_Fwd_list_impl", ptr %4, i32 0, i32 0
  %6 = invoke noundef ptr @_ZNSt14_Fwd_list_baseIPN7rocksdb24BackupEngineReadOnlyBaseESaIS2_EE14_M_erase_afterEPSt19_Fwd_list_node_baseS6_(ptr noundef nonnull align 8 dereferenceable(8) %3, ptr noundef %5, ptr noundef null)
          to label %7 unwind label %9

7:                                                ; preds = %1
  %8 = getelementptr inbounds nuw %"struct.std::_Fwd_list_base", ptr %3, i32 0, i32 0
  call void @_ZNSt15__new_allocatorISt14_Fwd_list_nodeIPN7rocksdb24BackupEngineReadOnlyBaseEEED2Ev(ptr noundef nonnull align 8 dereferenceable(8) %8) #24
  ret void

9:                                                ; preds = %1
  %10 = landingpad { ptr, i32 }
          catch ptr null
  %11 = extractvalue { ptr, i32 } %10, 0
  call void @__clang_call_terminate(ptr %11) #27
  unreachable
}

; Function Attrs: inlinehint mustprogress nounwind uwtable
define linkonce_odr void @_ZN7rocksdb14RestoreOptionsD2Ev(ptr noundef nonnull align 8 dereferenceable(20) %0) unnamed_addr #5 comdat align 2 {
  %2 = alloca ptr, align 8
  store ptr %0, ptr %2, align 8, !tbaa !1407
  %3 = load ptr, ptr %2, align 8
  %4 = getelementptr inbounds nuw %"struct.rocksdb::RestoreOptions", ptr %3, i32 0, i32 2
  call void @_ZNSt14_Fwd_list_baseIPN7rocksdb24BackupEngineReadOnlyBaseESaIS2_EED2Ev(ptr noundef nonnull align 8 dereferenceable(8) %4) #24
  ret void
}

; Function Attrs: inlinehint mustprogress nounwind uwtable
define linkonce_odr void @_ZN25rocksdb_restore_options_tD2Ev(ptr noundef nonnull align 8 dereferenceable(24) %0) unnamed_addr #5 comdat align 2 {
  %2 = alloca ptr, align 8
  store ptr %0, ptr %2, align 8, !tbaa !138
  %3 = load ptr, ptr %2, align 8
  %4 = getelementptr inbounds nuw %struct.rocksdb_restore_options_t, ptr %3, i32 0, i32 0
  call void @_ZN7rocksdb14RestoreOptionsD2Ev(ptr noundef nonnull align 8 dereferenceable(20) %4) #24
  ret void
}

; Function Attrs: mustprogress nounwind uwtable
define void @rocksdb_restore_options_destroy(ptr noundef %0) #2 {
  %2 = alloca ptr, align 8
  store ptr %0, ptr %2, align 8, !tbaa !138
  %3 = load ptr, ptr %2, align 8, !tbaa !138
  %4 = icmp eq ptr %3, null
  br i1 %4, label %6, label %5

5:                                                ; preds = %1
  call void @_ZN25rocksdb_restore_options_tD2Ev(ptr noundef nonnull align 8 dereferenceable(24) %3) #24
  call void @_ZdlPvm(ptr noundef %3, i64 noundef 24) #28
  br label %6

6:                                                ; preds = %5, %1
  ret void
}