; Function Attrs: mustprogress nounwind uwtable
define void @rocksdb_restore_options_destroy(ptr noundef %0) local_unnamed_addr #6 personality ptr @__gxx_personality_v0 {
  %2 = icmp eq ptr %0, null
  br i1 %2, label %7, label %3

3:                                                ; preds = %1
  %4 = getelementptr inbounds nuw i8, ptr %0, i64 8
  %5 = load ptr, ptr %4, align 8, !tbaa !135
  %.not12.i.i.i.i = icmp eq ptr %5, null
  br i1 %.not12.i.i.i.i, label %_ZN25rocksdb_restore_options_tD2Ev.exit, label %.lr.ph.i.i.i.i

.lr.ph.i.i.i.i:                                   ; preds = %3, %.lr.ph.i.i.i.i
  %.013.i.i.i.i = phi ptr [ %6, %.lr.ph.i.i.i.i ], [ %5, %3 ]
  %6 = load ptr, ptr %.013.i.i.i.i, align 8, !tbaa !135
  tail call void @_ZdlPvm(ptr noundef nonnull %.013.i.i.i.i, i64 noundef 16) #45
  %.not.i.i.i.i = icmp eq ptr %6, null
  br i1 %.not.i.i.i.i, label %_ZN25rocksdb_restore_options_tD2Ev.exit, label %.lr.ph.i.i.i.i, !llvm.loop !137

_ZN25rocksdb_restore_options_tD2Ev.exit:          ; preds = %.lr.ph.i.i.i.i, %3
  tail call void @_ZdlPvm(ptr noundef nonnull %0, i64 noundef 24) #45
  br label %7

7:                                                ; preds = %_ZN25rocksdb_restore_options_tD2Ev.exit, %1
  ret void
}